target datalayout = "e-m:e-p270:32:32-p271:32:32-p272:64:64-i64:64-i128:128-f80:128-n8:16:32:64-S128"
target triple = "x86_64-pc-linux-gnu"

%"struct.std::atomic" = type { %"struct.std::__atomic_base" }
%"struct.std::__atomic_base" = type { i8 }
%"class.google::protobuf::io::EpsCopyOutputStream" = type <{ ptr, ptr, [32 x i8], ptr, i8, i8, i8, [5 x i8] }>
%"class.google::protobuf::io::CodedOutputStream" = type { %"class.google::protobuf::io::EpsCopyOutputStream", ptr, i64 }

@_ZN6google8protobuf2io17CodedOutputStream36default_serialization_deterministic_E = global %"struct.std::atomic" zeroinitializer, align 1

; Function Attrs: noinline noreturn nounwind uwtable
define linkonce_odr hidden void @__clang_call_terminate(ptr noundef %0) #6 comdat {
  %2 = call ptr @__cxa_begin_catch(ptr %0) #3
  call void @_ZSt9terminatev() #15
  unreachable
}

; Function Attrs: mustprogress nounwind uwtable
define linkonce_odr noundef i32 @_ZStanSt12memory_orderSt23__memory_order_modifier(i32 noundef %0, i32 noundef %1) #4 comdat {
  %3 = alloca i32, align 4
  %4 = alloca i32, align 4
  store i32 %0, ptr %3, align 4, !tbaa !149
  store i32 %1, ptr %4, align 4, !tbaa !153
  %5 = load i32, ptr %3, align 4, !tbaa !149
  %6 = load i32, ptr %4, align 4, !tbaa !153
  %7 = and i32 %5, %6
  ret i32 %7
}

; Function Attrs: alwaysinline mustprogress nounwind uwtable
define linkonce_odr noundef zeroext i1 @_ZNKSt13__atomic_baseIbE4loadESt12memory_order(ptr noundef nonnull align 1 dereferenceable(1) %0, i32 noundef %1) #13 comdat align 2 personality ptr @__gxx_personality_v0 {
  %3 = alloca ptr, align 8
  %4 = alloca i32, align 4
  %5 = alloca i32, align 4
  %6 = alloca i8, align 1
  store ptr %0, ptr %3, align 8, !tbaa !151
  store i32 %1, ptr %4, align 4, !tbaa !149
  %7 = load ptr, ptr %3, align 8
  call void @llvm.lifetime.start.p0(i64 4, ptr %5) #3
  %8 = load i32, ptr %4, align 4, !tbaa !149
  %9 = invoke noundef i32 @_ZStanSt12memory_orderSt23__memory_order_modifier(i32 noundef %8, i32 noundef 65535)
          to label %10 unwind label %28

10:                                               ; preds = %2
  store i32 %9, ptr %5, align 4, !tbaa !149
  br label %11

11:                                               ; preds = %10
  br label %12

12:                                               ; preds = %11
  br label %13

13:                                               ; preds = %12
  br label %14

14:                                               ; preds = %13
  br label %15

15:                                               ; preds = %14
  br label %16

16:                                               ; preds = %15
  %17 = getelementptr inbounds nuw %"struct.std::__atomic_base", ptr %7, i32 0, i32 0
  %18 = load i32, ptr %4, align 4, !tbaa !149
  switch i32 %18, label %19 [
    i32 1, label %21
    i32 2, label %21
    i32 5, label %23
  ]

19:                                               ; preds = %16
  %20 = load atomic i8, ptr %17 monotonic, align 1
  store i8 %20, ptr %6, align 1
  br label %25

21:                                               ; preds = %16, %16
  %22 = load atomic i8, ptr %17 acquire, align 1
  store i8 %22, ptr %6, align 1
  br label %25

23:                                               ; preds = %16
  %24 = load atomic i8, ptr %17 seq_cst, align 1
  store i8 %24, ptr %6, align 1
  br label %25

25:                                               ; preds = %23, %21, %19
  %26 = load i8, ptr %6, align 1, !tbaa !32, !range !36, !noundef !37
  %27 = trunc i8 %26 to i1
  call void @llvm.lifetime.end.p0(i64 4, ptr %5) #3
  ret i1 %27

28:                                               ; preds = %2
  %29 = landingpad { ptr, i32 }
          catch ptr null
  %30 = extractvalue { ptr, i32 } %29, 0
  call void @__clang_call_terminate(ptr %30) #15
  unreachable
}

; Function Attrs: mustprogress nounwind uwtable
define linkonce_odr noundef zeroext i1 @_ZNKSt6atomicIbE4loadESt12memory_order(ptr noundef nonnull align 1 dereferenceable(1) %0, i32 noundef %1) #4 comdat align 2 {
  %3 = alloca ptr, align 8
  %4 = alloca i32, align 4
  store ptr %0, ptr %3, align 8, !tbaa !147
  store i32 %1, ptr %4, align 4, !tbaa !149
  %5 = load ptr, ptr %3, align 8
  %6 = getelementptr inbounds nuw %"struct.std::atomic", ptr %5, i32 0, i32 0
  %7 = load i32, ptr %4, align 4, !tbaa !149
  %8 = call noundef zeroext i1 @_ZNKSt13__atomic_baseIbE4loadESt12memory_order(ptr noundef nonnull align 1 dereferenceable(1) %6, i32 noundef %7) #3
  ret i1 %8
}

; Function Attrs: mustprogress nounwind uwtable
define linkonce_odr noundef ptr @_ZN6google8protobuf2io19EpsCopyOutputStream16SetInitialBufferEPvi(ptr noundef nonnull align 8 dereferenceable(59) %0, ptr noundef %1, i32 noundef %2) #4 comdat align 2 {
  %4 = alloca ptr, align 8
  %5 = alloca ptr, align 8
  %6 = alloca ptr, align 8
  %7 = alloca i32, align 4
  %8 = alloca ptr, align 8
  %9 = alloca i32, align 4
  store ptr %0, ptr %5, align 8, !tbaa !76
  store ptr %1, ptr %6, align 8, !tbaa !41
  store i32 %2, ptr %7, align 4, !tbaa !18
  %10 = load ptr, ptr %5, align 8
  call void @llvm.lifetime.start.p0(i64 8, ptr %8) #3
  %11 = load ptr, ptr %6, align 8, !tbaa !41
  store ptr %11, ptr %8, align 8, !tbaa !50
  %12 = load i32, ptr %7, align 4, !tbaa !18
  %13 = icmp sgt i32 %12, 16
  br i1 %13, label %14, label %23

14:                                               ; preds = %3
  %15 = load ptr, ptr %8, align 8, !tbaa !50
  %16 = load i32, ptr %7, align 4, !tbaa !18
  %17 = sext i32 %16 to i64
  %18 = getelementptr inbounds i8, ptr %15, i64 %17
  %19 = getelementptr inbounds i8, ptr %18, i64 -16
  %20 = getelementptr inbounds nuw %"class.google::protobuf::io::EpsCopyOutputStream", ptr %10, i32 0, i32 0
  store ptr %19, ptr %20, align 8, !tbaa !82
  %21 = getelementptr inbounds nuw %"class.google::protobuf::io::EpsCopyOutputStream", ptr %10, i32 0, i32 1
  store ptr null, ptr %21, align 8, !tbaa !83
  %22 = load ptr, ptr %8, align 8, !tbaa !50
  store ptr %22, ptr %4, align 8
  store i32 1, ptr %9, align 4
  br label %34

23:                                               ; preds = %3
  %24 = getelementptr inbounds nuw %"class.google::protobuf::io::EpsCopyOutputStream", ptr %10, i32 0, i32 2
  %25 = getelementptr inbounds [32 x i8], ptr %24, i64 0, i64 0
  %26 = load i32, ptr %7, align 4, !tbaa !18
  %27 = sext i32 %26 to i64
  %28 = getelementptr inbounds i8, ptr %25, i64 %27
  %29 = getelementptr inbounds nuw %"class.google::protobuf::io::EpsCopyOutputStream", ptr %10, i32 0, i32 0
  store ptr %28, ptr %29, align 8, !tbaa !82
  %30 = load ptr, ptr %8, align 8, !tbaa !50
  %31 = getelementptr inbounds nuw %"class.google::protobuf::io::EpsCopyOutputStream", ptr %10, i32 0, i32 1
  store ptr %30, ptr %31, align 8, !tbaa !83
  %32 = getelementptr inbounds nuw %"class.google::protobuf::io::EpsCopyOutputStream", ptr %10, i32 0, i32 2
  %33 = getelementptr inbounds [32 x i8], ptr %32, i64 0, i64 0
  store ptr %33, ptr %4, align 8
  store i32 1, ptr %9, align 4
  br label %34

34:                                               ; preds = %23, %14
  call void @llvm.lifetime.end.p0(i64 8, ptr %8) #3
  %35 = load ptr, ptr %4, align 8
  ret ptr %35
}

; Function Attrs: mustprogress nounwind uwtable
define linkonce_odr void @_ZN6google8protobuf2io19EpsCopyOutputStreamC2EPNS1_20ZeroCopyOutputStreamEbPPh(ptr noundef nonnull align 8 dereferenceable(59) %0, ptr noundef %1, i1 noundef zeroext %2, ptr noundef %3) unnamed_addr #4 comdat align 2 {
  %5 = alloca ptr, align 8
  %6 = alloca ptr, align 8
  %7 = alloca i8, align 1
  %8 = alloca ptr, align 8
  store ptr %0, ptr %5, align 8, !tbaa !76
  store ptr %1, ptr %6, align 8, !tbaa !107
  %9 = zext i1 %2 to i8
  store i8 %9, ptr %7, align 1, !tbaa !32
  store ptr %3, ptr %8, align 8, !tbaa !92
  %10 = load ptr, ptr %5, align 8
  %11 = getelementptr inbounds nuw %"class.google::protobuf::io::EpsCopyOutputStream", ptr %10, i32 0, i32 0
  %12 = getelementptr inbounds nuw %"class.google::protobuf::io::EpsCopyOutputStream", ptr %10, i32 0, i32 2
  %13 = getelementptr inbounds [32 x i8], ptr %12, i64 0, i64 0
  store ptr %13, ptr %11, align 8, !tbaa !82
  %14 = getelementptr inbounds nuw %"class.google::protobuf::io::EpsCopyOutputStream", ptr %10, i32 0, i32 1
  %15 = getelementptr inbounds nuw %"class.google::protobuf::io::EpsCopyOutputStream", ptr %10, i32 0, i32 2
  %16 = getelementptr inbounds [32 x i8], ptr %15, i64 0, i64 0
  store ptr %16, ptr %14, align 8, !tbaa !83
  %17 = getelementptr inbounds nuw %"class.google::protobuf::io::EpsCopyOutputStream", ptr %10, i32 0, i32 3
  %18 = load ptr, ptr %6, align 8, !tbaa !107
  store ptr %18, ptr %17, align 8, !tbaa !78
  %19 = getelementptr inbounds nuw %"class.google::protobuf::io::EpsCopyOutputStream", ptr %10, i32 0, i32 4
  store i8 0, ptr %19, align 8, !tbaa !84
  %20 = getelementptr inbounds nuw %"class.google::protobuf::io::EpsCopyOutputStream", ptr %10, i32 0, i32 5
  store i8 0, ptr %20, align 1, !tbaa !81
  %21 = getelementptr inbounds nuw %"class.google::protobuf::io::EpsCopyOutputStream", ptr %10, i32 0, i32 6
  %22 = load i8, ptr %7, align 1, !tbaa !32, !range !36, !noundef !37
  %23 = trunc i8 %22 to i1
  %24 = zext i1 %23 to i8
  store i8 %24, ptr %21, align 2, !tbaa !111
  %25 = getelementptr inbounds nuw %"class.google::protobuf::io::EpsCopyOutputStream", ptr %10, i32 0, i32 2
  %26 = getelementptr inbounds [32 x i8], ptr %25, i64 0, i64 0
  %27 = load ptr, ptr %8, align 8, !tbaa !92
  store ptr %26, ptr %27, align 8, !tbaa !50
  ret void
}

; Function Attrs: mustprogress nounwind uwtable
define linkonce_odr noundef zeroext i1 @_ZN6google8protobuf2io17CodedOutputStream35IsDefaultSerializationDeterministicEv() #4 comdat align 2 {
  %1 = call noundef zeroext i1 @_ZNKSt6atomicIbE4loadESt12memory_order(ptr noundef nonnull align 1 dereferenceable(1) @_ZN6google8protobuf2io17CodedOutputStream36default_serialization_deterministic_E, i32 noundef 0) #3
  %2 = zext i1 %1 to i32
  %3 = icmp ne i32 %2, 0
  ret i1 %3
}

; Function Attrs: mustprogress uwtable
define void @_ZN6google8protobuf2io17CodedOutputStreamC2EPNS1_20ZeroCopyOutputStreamEb(ptr noundef nonnull align 8 dereferenceable(80) %0, ptr noundef %1, i1 noundef zeroext %2) unnamed_addr #5 align 2 {
  %4 = alloca ptr, align 8
  %5 = alloca ptr, align 8
  %6 = alloca i8, align 1
  %7 = alloca ptr, align 8
  %8 = alloca i32, align 4
  %9 = alloca i32, align 4
  store ptr %0, ptr %4, align 8, !tbaa !105
  store ptr %1, ptr %5, align 8, !tbaa !107
  %10 = zext i1 %2 to i8
  store i8 %10, ptr %6, align 1, !tbaa !32
  %11 = load ptr, ptr %4, align 8
  %12 = getelementptr inbounds nuw %"class.google::protobuf::io::CodedOutputStream", ptr %11, i32 0, i32 0
  %13 = load ptr, ptr %5, align 8, !tbaa !107
  %14 = call noundef zeroext i1 @_ZN6google8protobuf2io17CodedOutputStream35IsDefaultSerializationDeterministicEv()
  %15 = getelementptr inbounds nuw %"class.google::protobuf::io::CodedOutputStream", ptr %11, i32 0, i32 1
  call void @_ZN6google8protobuf2io19EpsCopyOutputStreamC2EPNS1_20ZeroCopyOutputStreamEbPPh(ptr noundef nonnull align 8 dereferenceable(59) %12, ptr noundef %13, i1 noundef zeroext %14, ptr noundef %15)
  %16 = getelementptr inbounds nuw %"class.google::protobuf::io::CodedOutputStream", ptr %11, i32 0, i32 2
  %17 = load ptr, ptr %5, align 8, !tbaa !107
  %18 = load ptr, ptr %17, align 8, !tbaa !19
  %19 = getelementptr inbounds ptr, ptr %18, i64 4
  %20 = load ptr, ptr %19, align 8
  %21 = call noundef i64 %20(ptr noundef nonnull align 8 dereferenceable(8) %17)
  store i64 %21, ptr %16, align 8, !tbaa !108
  %22 = load i8, ptr %6, align 1, !tbaa !32, !range !36, !noundef !37
  %23 = trunc i8 %22 to i1
  br i1 %23, label %24, label %43

24:                                               ; preds = %3
  call void @llvm.lifetime.start.p0(i64 8, ptr %7) #3
  call void @llvm.lifetime.start.p0(i64 4, ptr %8) #3
  %25 = load ptr, ptr %5, align 8, !tbaa !107
  %26 = load ptr, ptr %25, align 8, !tbaa !19
  %27 = getelementptr inbounds ptr, ptr %26, i64 2
  %28 = load ptr, ptr %27, align 8
  %29 = call noundef zeroext i1 %28(ptr noundef nonnull align 8 dereferenceable(8) %25, ptr noundef %7, ptr noundef %8)
  br i1 %29, label %30, label %33

30:                                               ; preds = %24
  %31 = load i32, ptr %8, align 4, !tbaa !18
  %32 = icmp eq i32 %31, 0
  br i1 %32, label %33, label %34

33:                                               ; preds = %30, %24
  store i32 1, ptr %9, align 4
  br label %40

34:                                               ; preds = %30
  %35 = getelementptr inbounds nuw %"class.google::protobuf::io::CodedOutputStream", ptr %11, i32 0, i32 0
  %36 = load ptr, ptr %7, align 8, !tbaa !41
  %37 = load i32, ptr %8, align 4, !tbaa !18
  %38 = call noundef ptr @_ZN6google8protobuf2io19EpsCopyOutputStream16SetInitialBufferEPvi(ptr noundef nonnull align 8 dereferenceable(59) %35, ptr noundef %36, i32 noundef %37)
  %39 = getelementptr inbounds nuw %"class.google::protobuf::io::CodedOutputStream", ptr %11, i32 0, i32 1
  store ptr %38, ptr %39, align 8, !tbaa !110
  store i32 0, ptr %9, align 4
  br label %40

40:                                               ; preds = %34, %33
  call void @llvm.lifetime.end.p0(i64 4, ptr %8) #3
  call void @llvm.lifetime.end.p0(i64 8, ptr %7) #3
  %41 = load i32, ptr %9, align 4
  switch i32 %41, label %44 [
    i32 0, label %42
    i32 1, label %43
  ]

42:                                               ; preds = %40
  br label %43

43:                                               ; preds = %40, %42, %3
  ret void

44:                                               ; preds = %40
  unreachable
}